target datalayout = "e-m:e-p270:32:32-p271:32:32-p272:64:64-i64:64-i128:128-f80:128-n8:16:32:64-S128"
target triple = "x86_64-pc-linux-gnu"

%struct.st__table = type { ptr, ptr, i32, i32, i32, i32, double, ptr }
%struct.st__table_entry = type { ptr, ptr, ptr }

; Function Attrs: inlinehint nounwind uwtable
define internal i32 @Abc_AbsInt(i32 noundef %0) #4 {
  %2 = alloca i32, align 4
  store i32 %0, ptr %2, align 4, !tbaa !7
  %3 = load i32, ptr %2, align 4, !tbaa !7
  %4 = icmp slt i32 %3, 0
  br i1 %4, label %5, label %8

5:                                                ; preds = %1
  %6 = load i32, ptr %2, align 4, !tbaa !7
  %7 = sub nsw i32 0, %6
  br label %10

8:                                                ; preds = %1
  %9 = load i32, ptr %2, align 4, !tbaa !7
  br label %10

10:                                               ; preds = %8, %5
  %11 = phi i32 [ %7, %5 ], [ %9, %8 ]
  ret i32 %11
}

; Function Attrs: nounwind uwtable
define i32 @st__delete_int(ptr noundef %0, ptr noundef %1, ptr noundef %2) #0 {
  %4 = alloca i32, align 4
  %5 = alloca ptr, align 8
  %6 = alloca ptr, align 8
  %7 = alloca ptr, align 8
  %8 = alloca i32, align 4
  %9 = alloca ptr, align 8
  %10 = alloca ptr, align 8
  %11 = alloca ptr, align 8
  %12 = alloca i32, align 4
  store ptr %0, ptr %5, align 8, !tbaa !11
  store ptr %1, ptr %6, align 8, !tbaa !57
  store ptr %2, ptr %7, align 8, !tbaa !33
  call void @llvm.lifetime.start.p0(i64 4, ptr %8) #6
  call void @llvm.lifetime.start.p0(i64 8, ptr %9) #6
  %13 = load ptr, ptr %6, align 8, !tbaa !57
  %14 = load i64, ptr %13, align 8, !tbaa !59
  %15 = inttoptr i64 %14 to ptr
  store ptr %15, ptr %9, align 8, !tbaa !32
  call void @llvm.lifetime.start.p0(i64 8, ptr %10) #6
  call void @llvm.lifetime.start.p0(i64 8, ptr %11) #6
  %16 = load ptr, ptr %5, align 8, !tbaa !11
  %17 = getelementptr inbounds nuw %struct.st__table, ptr %16, i32 0, i32 1
  %18 = load ptr, ptr %17, align 8, !tbaa !16
  %19 = icmp eq ptr %18, @st__ptrhash
  br i1 %19, label %20, label %30

20:                                               ; preds = %3
  %21 = load ptr, ptr %9, align 8, !tbaa !32
  %22 = ptrtoint ptr %21 to i64
  %23 = lshr i64 %22, 2
  %24 = load ptr, ptr %5, align 8, !tbaa !11
  %25 = getelementptr inbounds nuw %struct.st__table, ptr %24, i32 0, i32 2
  %26 = load i32, ptr %25, align 8, !tbaa !21
  %27 = sext i32 %26 to i64
  %28 = urem i64 %23, %27
  %29 = trunc i64 %28 to i32
  br label %55

30:                                               ; preds = %3
  %31 = load ptr, ptr %5, align 8, !tbaa !11
  %32 = getelementptr inbounds nuw %struct.st__table, ptr %31, i32 0, i32 1
  %33 = load ptr, ptr %32, align 8, !tbaa !16
  %34 = icmp eq ptr %33, @st__numhash
  br i1 %34, label %35, label %44

35:                                               ; preds = %30
  %36 = load ptr, ptr %9, align 8, !tbaa !32
  %37 = ptrtoint ptr %36 to i64
  %38 = trunc i64 %37 to i32
  %39 = call i32 @Abc_AbsInt(i32 noundef %38)
  %40 = load ptr, ptr %5, align 8, !tbaa !11
  %41 = getelementptr inbounds nuw %struct.st__table, ptr %40, i32 0, i32 2
  %42 = load i32, ptr %41, align 8, !tbaa !21
  %43 = srem i32 %39, %42
  br label %53

44:                                               ; preds = %30
  %45 = load ptr, ptr %5, align 8, !tbaa !11
  %46 = getelementptr inbounds nuw %struct.st__table, ptr %45, i32 0, i32 1
  %47 = load ptr, ptr %46, align 8, !tbaa !16
  %48 = load ptr, ptr %9, align 8, !tbaa !32
  %49 = load ptr, ptr %5, align 8, !tbaa !11
  %50 = getelementptr inbounds nuw %struct.st__table, ptr %49, i32 0, i32 2
  %51 = load i32, ptr %50, align 8, !tbaa !21
  %52 = call i32 %47(ptr noundef %48, i32 noundef %51)
  br label %53

53:                                               ; preds = %44, %35
  %54 = phi i32 [ %43, %35 ], [ %52, %44 ]
  br label %55

55:                                               ; preds = %53, %20
  %56 = phi i32 [ %29, %20 ], [ %54, %53 ]
  store i32 %56, ptr %8, align 4, !tbaa !7
  %57 = load ptr, ptr %5, align 8, !tbaa !11
  %58 = getelementptr inbounds nuw %struct.st__table, ptr %57, i32 0, i32 7
  %59 = load ptr, ptr %58, align 8, !tbaa !22
  %60 = load i32, ptr %8, align 4, !tbaa !7
  %61 = sext i32 %60 to i64
  %62 = getelementptr inbounds ptr, ptr %59, i64 %61
  store ptr %62, ptr %11, align 8, !tbaa !35
  %63 = load ptr, ptr %11, align 8, !tbaa !35
  %64 = load ptr, ptr %63, align 8, !tbaa !23
  store ptr %64, ptr %10, align 8, !tbaa !23
  br label %65

65:                                               ; preds = %104, %55
  %66 = load ptr, ptr %10, align 8, !tbaa !23
  %67 = icmp ne ptr %66, null
  br i1 %67, label %68, label %102

68:                                               ; preds = %65
  %69 = load ptr, ptr %5, align 8, !tbaa !11
  %70 = getelementptr inbounds nuw %struct.st__table, ptr %69, i32 0, i32 0
  %71 = load ptr, ptr %70, align 8, !tbaa !13
  %72 = icmp eq ptr %71, @st__numcmp
  br i1 %72, label %78, label %73

73:                                               ; preds = %68
  %74 = load ptr, ptr %5, align 8, !tbaa !11
  %75 = getelementptr inbounds nuw %struct.st__table, ptr %74, i32 0, i32 0
  %76 = load ptr, ptr %75, align 8, !tbaa !13
  %77 = icmp eq ptr %76, @st__ptrcmp
  br i1 %77, label %78, label %87

78:                                               ; preds = %73, %68
  %79 = load ptr, ptr %9, align 8, !tbaa !32
  %80 = load ptr, ptr %10, align 8, !tbaa !23
  %81 = getelementptr inbounds nuw %struct.st__table_entry, ptr %80, i32 0, i32 0
  %82 = load ptr, ptr %81, align 8, !tbaa !36
  %83 = icmp ne ptr %79, %82
  %84 = zext i1 %83 to i32
  %85 = icmp eq i32 %84, 0
  %86 = zext i1 %85 to i32
  br label %98

87:                                               ; preds = %73
  %88 = load ptr, ptr %5, align 8, !tbaa !11
  %89 = getelementptr inbounds nuw %struct.st__table, ptr %88, i32 0, i32 0
  %90 = load ptr, ptr %89, align 8, !tbaa !13
  %91 = load ptr, ptr %9, align 8, !tbaa !32
  %92 = load ptr, ptr %10, align 8, !tbaa !23
  %93 = getelementptr inbounds nuw %struct.st__table_entry, ptr %92, i32 0, i32 0
  %94 = load ptr, ptr %93, align 8, !tbaa !36
  %95 = call i32 %90(ptr noundef %91, ptr noundef %94)
  %96 = icmp eq i32 %95, 0
  %97 = zext i1 %96 to i32
  br label %98

98:                                               ; preds = %87, %78
  %99 = phi i32 [ %86, %78 ], [ %97, %87 ]
  %100 = icmp ne i32 %99, 0
  %101 = xor i1 %100, true
  br label %102

102:                                              ; preds = %98, %65
  %103 = phi i1 [ false, %65 ], [ %101, %98 ]
  br i1 %103, label %104, label %109

104:                                              ; preds = %102
  %105 = load ptr, ptr %10, align 8, !tbaa !23
  %106 = getelementptr inbounds nuw %struct.st__table_entry, ptr %105, i32 0, i32 2
  store ptr %106, ptr %11, align 8, !tbaa !35
  %107 = load ptr, ptr %11, align 8, !tbaa !35
  %108 = load ptr, ptr %107, align 8, !tbaa !23
  store ptr %108, ptr %10, align 8, !tbaa !23
  br label %65, !llvm.loop !61

109:                                              ; preds = %102
  %110 = load ptr, ptr %10, align 8, !tbaa !23
  %111 = icmp ne ptr %110, null
  br i1 %111, label %112, label %138

112:                                              ; preds = %109
  %113 = load ptr, ptr %5, align 8, !tbaa !11
  %114 = getelementptr inbounds nuw %struct.st__table, ptr %113, i32 0, i32 5
  %115 = load i32, ptr %114, align 4, !tbaa !20
  %116 = icmp ne i32 %115, 0
  br i1 %116, label %117, label %138

117:                                              ; preds = %112
  %118 = load ptr, ptr %10, align 8, !tbaa !23
  %119 = getelementptr inbounds nuw %struct.st__table_entry, ptr %118, i32 0, i32 2
  %120 = load ptr, ptr %119, align 8, !tbaa !27
  %121 = load ptr, ptr %11, align 8, !tbaa !35
  store ptr %120, ptr %121, align 8, !tbaa !23
  %122 = load ptr, ptr %5, align 8, !tbaa !11
  %123 = getelementptr inbounds nuw %struct.st__table, ptr %122, i32 0, i32 7
  %124 = load ptr, ptr %123, align 8, !tbaa !22
  %125 = load i32, ptr %8, align 4, !tbaa !7
  %126 = sext i32 %125 to i64
  %127 = getelementptr inbounds ptr, ptr %124, i64 %126
  %128 = load ptr, ptr %127, align 8, !tbaa !23
  %129 = load ptr, ptr %10, align 8, !tbaa !23
  %130 = getelementptr inbounds nuw %struct.st__table_entry, ptr %129, i32 0, i32 2
  store ptr %128, ptr %130, align 8, !tbaa !27
  %131 = load ptr, ptr %10, align 8, !tbaa !23
  %132 = load ptr, ptr %5, align 8, !tbaa !11
  %133 = getelementptr inbounds nuw %struct.st__table, ptr %132, i32 0, i32 7
  %134 = load ptr, ptr %133, align 8, !tbaa !22
  %135 = load i32, ptr %8, align 4, !tbaa !7
  %136 = sext i32 %135 to i64
  %137 = getelementptr inbounds ptr, ptr %134, i64 %136
  store ptr %131, ptr %137, align 8, !tbaa !23
  br label %138

138:                                              ; preds = %117, %112, %109
  %139 = load ptr, ptr %10, align 8, !tbaa !23
  %140 = icmp eq ptr %139, null
  br i1 %140, label %141, label %142

141:                                              ; preds = %138
  store i32 0, ptr %4, align 4
  store i32 1, ptr %12, align 4
  br label %170

142:                                              ; preds = %138
  %143 = load ptr, ptr %10, align 8, !tbaa !23
  %144 = getelementptr inbounds nuw %struct.st__table_entry, ptr %143, i32 0, i32 2
  %145 = load ptr, ptr %144, align 8, !tbaa !27
  %146 = load ptr, ptr %11, align 8, !tbaa !35
  store ptr %145, ptr %146, align 8, !tbaa !23
  %147 = load ptr, ptr %7, align 8, !tbaa !33
  %148 = icmp ne ptr %147, null
  br i1 %148, label %149, label %154

149:                                              ; preds = %142
  %150 = load ptr, ptr %10, align 8, !tbaa !23
  %151 = getelementptr inbounds nuw %struct.st__table_entry, ptr %150, i32 0, i32 1
  %152 = load ptr, ptr %151, align 8, !tbaa !38
  %153 = load ptr, ptr %7, align 8, !tbaa !33
  store ptr %152, ptr %153, align 8, !tbaa !32
  br label %154

154:                                              ; preds = %149, %142
  %155 = load ptr, ptr %10, align 8, !tbaa !23
  %156 = getelementptr inbounds nuw %struct.st__table_entry, ptr %155, i32 0, i32 0
  %157 = load ptr, ptr %156, align 8, !tbaa !36
  %158 = ptrtoint ptr %157 to i64
  %159 = load ptr, ptr %6, align 8, !tbaa !57
  store i64 %158, ptr %159, align 8, !tbaa !59
  %160 = load ptr, ptr %10, align 8, !tbaa !23
  %161 = icmp ne ptr %160, null
  br i1 %161, label %162, label %164

162:                                              ; preds = %154
  %163 = load ptr, ptr %10, align 8, !tbaa !23
  call void @free(ptr noundef %163) #6
  store ptr null, ptr %10, align 8, !tbaa !23
  br label %165

164:                                              ; preds = %154
  br label %165

165:                                              ; preds = %164, %162
  %166 = load ptr, ptr %5, align 8, !tbaa !11
  %167 = getelementptr inbounds nuw %struct.st__table, ptr %166, i32 0, i32 3
  %168 = load i32, ptr %167, align 4, !tbaa !17
  %169 = add nsw i32 %168, -1
  store i32 %169, ptr %167, align 4, !tbaa !17
  store i32 1, ptr %4, align 4
  store i32 1, ptr %12, align 4
  br label %170

170:                                              ; preds = %165, %141
  call void @llvm.lifetime.end.p0(i64 8, ptr %11) #6
  call void @llvm.lifetime.end.p0(i64 8, ptr %10) #6
  call void @llvm.lifetime.end.p0(i64 8, ptr %9) #6
  call void @llvm.lifetime.end.p0(i64 4, ptr %8) #6
  %171 = load i32, ptr %4, align 4
  ret i32 %171
}